target datalayout = "e-m:e-p270:32:32-p271:32:32-p272:64:64-i64:64-i128:128-f80:128-n8:16:32:64-S128"
target triple = "x86_64-pc-linux-gnu"

@.str.13 = private unnamed_addr constant [57 x i8] c"Error parsing '%s = %s', most left part of the line: %s.\00", align 1
@.str.14 = private unnamed_addr constant [24 x i8] c"Unable to parse line %s\00", align 1

; Function Attrs: nounwind uwtable
define dso_local i32 @s_p_parse_pair(ptr noundef %0, ptr noundef %1, ptr noundef %2) #0 {
  %4 = alloca ptr, align 8
  %5 = alloca ptr, align 8
  %6 = alloca ptr, align 8
  store ptr %0, ptr %4, align 8
  store ptr %1, ptr %5, align 8
  store ptr %2, ptr %6, align 8
  %7 = load ptr, ptr %4, align 8
  %8 = load ptr, ptr %5, align 8
  %9 = load ptr, ptr %6, align 8
  %10 = call i32 @s_p_parse_pair_with_op(ptr noundef %7, ptr noundef %8, ptr noundef %9, i32 noundef 0)
  ret i32 %10
}

; Function Attrs: nounwind uwtable
define dso_local i32 @s_p_parse_line_complete(ptr noundef %0, ptr noundef %1, ptr noundef %2, ptr noundef %3, ptr noundef %4) #0 {
  %6 = alloca i32, align 4
  %7 = alloca ptr, align 8
  %8 = alloca ptr, align 8
  %9 = alloca ptr, align 8
  %10 = alloca ptr, align 8
  %11 = alloca ptr, align 8
  store ptr %0, ptr %7, align 8
  store ptr %1, ptr %8, align 8
  store ptr %2, ptr %9, align 8
  store ptr %3, ptr %10, align 8
  store ptr %4, ptr %11, align 8
  %12 = load ptr, ptr %7, align 8
  %13 = load ptr, ptr %8, align 8
  %14 = load ptr, ptr %9, align 8
  %15 = call i32 @s_p_parse_pair(ptr noundef %12, ptr noundef %13, ptr noundef %14)
  %16 = icmp ne i32 %15, 0
  br i1 %16, label %22, label %17

17:                                               ; preds = %5
  %18 = load ptr, ptr %8, align 8
  %19 = load ptr, ptr %9, align 8
  %20 = load ptr, ptr %10, align 8
  %21 = call i32 (ptr, ...) @error(ptr noundef @.str.13, ptr noundef %18, ptr noundef %19, ptr noundef %20)
  store i32 -1, ptr %6, align 4
  br label %34

22:                                               ; preds = %5
  %23 = load ptr, ptr %7, align 8
  %24 = load ptr, ptr %11, align 8
  %25 = load ptr, ptr %24, align 8
  %26 = load ptr, ptr %11, align 8
  %27 = call i32 @s_p_parse_line(ptr noundef %23, ptr noundef %25, ptr noundef %26)
  %28 = icmp ne i32 %27, 0
  br i1 %28, label %33, label %29

29:                                               ; preds = %22
  %30 = load ptr, ptr %11, align 8
  %31 = load ptr, ptr %30, align 8
  %32 = call i32 (ptr, ...) @error(ptr noundef @.str.14, ptr noundef %31)
  store i32 -1, ptr %6, align 4
  br label %34

33:                                               ; preds = %22
  store i32 0, ptr %6, align 4
  br label %34

34:                                               ; preds = %33, %29, %17
  %35 = load i32, ptr %6, align 4
  ret i32 %35
}