; Function Attrs: nounwind uwtable
define dso_local range(i32 -1, 1) i32 @s_p_parse_line_complete(ptr noundef %0, ptr noundef %1, ptr noundef %2, ptr noundef %3, ptr noundef captures(none) %4) local_unnamed_addr #0 {
  %6 = tail call range(i32 0, 2) i32 @s_p_parse_pair_with_op(ptr noundef %0, ptr noundef %1, ptr noundef %2, i32 noundef 0)
  %.not = icmp eq i32 %6, 0
  br i1 %.not, label %7, label %9

7:                                                ; preds = %5
  %8 = tail call i32 (ptr, ...) @error(ptr noundef nonnull @.str.13, ptr noundef %1, ptr noundef %2, ptr noundef %3) #13
  br label %15

9:                                                ; preds = %5
  %10 = load ptr, ptr %4, align 8
  %11 = tail call i32 @s_p_parse_line(ptr noundef %0, ptr noundef %10, ptr noundef nonnull %4)
  %.not10 = icmp eq i32 %11, 0
  br i1 %.not10, label %12, label %15

12:                                               ; preds = %9
  %13 = load ptr, ptr %4, align 8
  %14 = tail call i32 (ptr, ...) @error(ptr noundef nonnull @.str.14, ptr noundef %13) #13
  br label %15

15:                                               ; preds = %9, %12, %7
  %.0 = phi i32 [ -1, %12 ], [ -1, %7 ], [ 0, %9 ]
  ret i32 %.0
}